Certificate:
    Data:
        Version: 3 (0x2)
        Serial Number:
            e8:d3:99:40:87:c1:7d:f3:93:7f:4f:da:96:0e:26:86
        Signature Algorithm: sha256WithRSAEncryption
        Issuer: CN=Testing CA
        Validity
            Not Before: Jan  1 00:04:15 2021 GMT
            Not After : Dec 29 00:04:15 2030 GMT
        Subject: CN=vault-server
        Subject Public Key Info:
            Public Key Algorithm: rsaEncryption
                RSA Public-Key: (2048 bit)
                Modulus:
                    00:bb:96:88:43:7f:c7:4b:9a:e7:4c:1a:62:fc:c0:
                    56:cb:1e:f7:42:d6:ca:18:16:41:22:f4:ca:ee:98:
                    c9:32:44:56:fa:06:54:5f:a1:2c:0a:1a:1b:7d:17:
                    f6:b9:cc:c6:c6:cd:a4:23:1d:03:c3:d5:2b:a7:4c:
                    ed:37:22:22:91:11:3f:96:40:f4:26:ce:e0:db:be:
                    f4:10:5d:7b:ca:91:22:78:33:2c:22:95:5f:98:c7:
                    69:ce:33:6b:f7:f0:4f:8e:b1:9a:da:63:a5:89:64:
                    ce:c8:24:fb:56:29:f5:a5:14:32:18:46:20:5a:73:
                    77:42:bc:1d:90:52:5e:6a:55:30:46:ee:4d:24:bb:
                    93:85:6b:92:19:09:f5:25:0c:f1:02:ac:eb:41:85:
                    55:3b:2c:d1:92:a1:7f:73:d7:5e:3a:40:f6:ff:63:
                    3d:f7:b6:7c:f0:ca:bb:ae:25:7c:2e:fc:e2:95:55:
                    a6:73:3a:57:bb:70:d4:f6:0a:45:3c:46:87:f0:4f:
                    bf:41:62:f3:ff:cf:b6:64:7f:3d:58:69:e4:a1:96:
                    24:eb:36:d2:94:83:14:75:5f:6e:e8:3d:f5:2c:3f:
                    45:8b:7a:c6:c6:a8:5f:75:50:d1:b8:c8:d3:c9:51:
                    94:e9:6b:35:28:1d:af:1f:13:0d:03:a3:3d:46:eb:
                    a9:bd
                Exponent: 65537 (0x10001)
        X509v3 extensions:
            X509v3 Basic Constraints: 
                CA:FALSE
            X509v3 Subject Key Identifier: 
                2C:5F:48:C0:DD:04:AE:62:87:37:5E:15:96:B6:98:61:41:1F:4C:7F
            X509v3 Authority Key Identifier: 
                keyid:28:17:AB:B2:C9:E4:02:38:D0:36:22:EA:B9:D0:1F:FB:2E:43:8B:2B
                DirName:/CN=Testing CA
                serial:19:37:10:6F:C3:6B:4E:C2:71:87:71:1F:DA:51:9D:E1:81:43:37:BA

            X509v3 Extended Key Usage: 
                TLS Web Server Authentication
            X509v3 Key Usage: 
                Digital Signature, Key Encipherment
            X509v3 Subject Alternative Name: 
                DNS:localhost, IP Address:127.0.0.1
    Signature Algorithm: sha256WithRSAEncryption
         70:11:fa:36:28:6b:0a:dc:7c:f5:2c:7e:a5:1a:e0:3c:c0:0d:
         0d:a2:2f:ed:50:71:79:46:0b:e9:af:d4:6b:f8:b0:95:f0:7e:
         fc:9c:01:cd:57:92:27:46:3b:96:27:9b:2b:bc:d5:79:7f:fa:
         2b:02:f0:92:39:04:b8:3a:a1:09:2c:10:bf:48:8f:f9:43:31:
         d5:d4:87:15:7f:82:72:ff:93:79:4f:02:53:cc:fd:e4:7d:c4:
         50:df:dd:59:86:66:dd:4a:ea:17:ce:b4:d9:9c:ed:b0:e0:13:
         22:66:58:95:33:46:af:5b:a6:fa:22:ac:aa:ce:dd:05:0d:85:
         68:b0:4a:72:97:a8:3a:39:3e:1d:79:1b:98:f6:a9:6e:35:ff:
         9c:0f:56:7c:65:52:8a:55:b7:6f:4f:90:3d:9b:6a:b0:45:56:
         74:80:c1:de:da:10:c2:d1:1b:52:9f:32:4f:a1:0f:90:28:02:
         cb:2b:ab:fc:9a:18:a6:c8:c6:15:ba:55:f5:69:23:96:c2:c0:
         c7:71:a5:c2:29:17:f7:ab:4a:a0:a5:58:e5:66:1d:c0:e1:e2:
         6e:05:7b:a9:dd:a6:19:9c:4f:ee:01:e4:a5:e8:4d:b5:2a:0f:
         42:af:5f:9b:b2:ab:c3:6d:4b:c9:5c:b9:7d:36:21:ce:99:2f:
         7a:0b:10:0d
-----BEGIN CERTIFICATE-----
MIIDdTCCAl2gAwIBAgIRAOjTmUCHwX3zk39P2pYOJoYwDQYJKoZIhvcNAQELBQAw
FTETMBEGA1UEAwwKVGVzdGluZyBDQTAeFw0yMTAxMDEwMDA0MTVaFw0zMDEyMjkw
MDA0MTVaMBcxFTATBgNVBAMMDHZhdWx0LXNlcnZlcjCCASIwDQYJKoZIhvcNAQEB
BQADggEPADCCAQoCggEBALuWiEN/x0ua50waYvzAVsse90LWyhgWQSL0yu6YyTJE
VvoGVF+hLAoaG30X9rnMxsbNpCMdA8PVK6dM7TciIpERP5ZA9CbO4Nu+9BBde8qR
IngzLCKVX5jHac4za/fwT46xmtpjpYlkzsgk+1Yp9aUUMhhGIFpzd0K8HZBSXmpV
MEbuTSS7k4VrkhkJ9SUM8QKs60GFVTss0ZKhf3PXXjpA9v9jPfe2fPDKu64lfC78
4pVVpnM6V7tw1PYKRTxGh/BPv0Fi8//PtmR/PVhp5KGWJOs20pSDFHVfbug99Sw/
RYt6xsaoX3VQ0bjI08lRlOlrNSgdrx8TDQOjPUbrqb0CAwEAAaOBvTCBujAJBgNV
HRMEAjAAMB0GA1UdDgQWBBQsX0jA3QSuYoc3XhWWtphhQR9MfzBQBgNVHSMESTBH
gBQoF6uyyeQCONA2Iuq50B/7LkOLK6EZpBcwFTETMBEGA1UEAwwKVGVzdGluZyBD
QYIUGTcQb8NrTsJxh3Ef2lGd4YFDN7owEwYDVR0lBAwwCgYIKwYBBQUHAwEwCwYD
VR0PBAQDAgWgMBoGA1UdEQQTMBGCCWxvY2FsaG9zdIcEfwAAATANBgkqhkiG9w0B
AQsFAAOCAQEAcBH6NihrCtx89Sx+pRrgPMANDaIv7VBxeUYL6a/Ua/iwlfB+/JwB
zVeSJ0Y7liebK7zVeX/6KwLwkjkEuDqhCSwQv0iP+UMx1dSHFX+Ccv+TeU8CU8z9
5H3EUN/dWYZm3UrqF8602ZztsOATImZYlTNGr1um+iKsqs7dBQ2FaLBKcpeoOjk+
HXkbmPapbjX/nA9WfGVSilW3b0+QPZtqsEVWdIDB3toQwtEbUp8yT6EPkCgCyyur
/JoYpsjGFbpV9WkjlsLAx3GlwikX96tKoKVY5WYdwOHibgV7qd2mGZxP7gHkpehN
tSoPQq9fm7Krw21LyVy5fTYhzpkvegsQDQ==
-----END CERTIFICATE-----
